target datalayout = "e-m:e-p270:32:32-p271:32:32-p272:64:64-i64:64-i128:128-f80:128-n8:16:32:64-S128"
target triple = "x86_64-pc-linux-gnu"

%struct.anon = type { ptr, ptr, i32, i64, i64, i64, i64, i32, i32, [1024 x i8] }
%struct.__va_list_tag = type { i32, i32, ptr, ptr }

@rdbstate = dso_local global %struct.anon zeroinitializer, align 8

; Function Attrs: nounwind uwtable
define dso_local void @rdbCheckSetError(ptr noundef %0, ...) #0 {
  %2 = alloca ptr, align 8
  %3 = alloca [1 x %struct.__va_list_tag], align 16
  store ptr %0, ptr %2, align 8, !tbaa !17
  call void @llvm.lifetime.start.p0(i64 24, ptr %3) #9
  %4 = getelementptr inbounds [1 x %struct.__va_list_tag], ptr %3, i64 0, i64 0
  call void @llvm.va_start.p0(ptr %4)
  %5 = load ptr, ptr %2, align 8, !tbaa !17
  %6 = getelementptr inbounds [1 x %struct.__va_list_tag], ptr %3, i64 0, i64 0
  %7 = call i32 @vsnprintf(ptr noundef getelementptr inbounds nuw (%struct.anon, ptr @rdbstate, i32 0, i32 9), i64 noundef 1024, ptr noundef %5, ptr noundef %6) #9
  %8 = getelementptr inbounds [1 x %struct.__va_list_tag], ptr %3, i64 0, i64 0
  call void @llvm.va_end.p0(ptr %8)
  store i32 1, ptr getelementptr inbounds nuw (%struct.anon, ptr @rdbstate, i32 0, i32 8), align 4, !tbaa !27
  call void @llvm.lifetime.end.p0(i64 24, ptr %3) #9
  ret void
}