; Function Attrs: nofree nounwind uwtable
define dso_local void @rdbCheckSetError(ptr noundef readonly captures(none) %0, ...) local_unnamed_addr #0 {
  %2 = alloca [1 x %struct.__va_list_tag], align 16
  call void @llvm.lifetime.start.p0(i64 24, ptr nonnull %2) #15
  call void @llvm.va_start.p0(ptr nonnull %2)
  %3 = call i32 @vsnprintf(ptr noundef nonnull getelementptr inbounds nuw (i8, ptr @rdbstate, i64 64), i64 noundef 1024, ptr noundef %0, ptr noundef nonnull %2) #15
  call void @llvm.va_end.p0(ptr nonnull %2)
  store i32 1, ptr getelementptr inbounds nuw (i8, ptr @rdbstate, i64 60), align 4, !tbaa !27
  call void @llvm.lifetime.end.p0(i64 24, ptr nonnull %2) #15
  ret void
}